target datalayout = "e-m:e-p270:32:32-p271:32:32-p272:64:64-i64:64-i128:128-f80:128-n8:16:32:64-S128"
target triple = "x86_64-pc-linux-gnu"

%"class.icu_77::RegexMatcher" = type { %"class.icu_77::UObject", ptr, ptr, ptr, ptr, ptr, i64, i32, i64, i64, i64, i64, i64, i64, i64, i64, i8, i8, i8, i64, i64, i64, i64, i8, i8, ptr, ptr, ptr, [8 x i64], i32, i32, i32, i32, ptr, ptr, ptr, ptr, i8, i8, i32, ptr, ptr }
%"class.icu_77::UObject" = type { ptr }
%struct.UText = type { i32, i32, i32, i32, i64, i32, i32, i64, i32, i32, ptr, ptr, ptr, ptr, ptr, ptr, ptr, ptr, i64, i32, i32, i64, i32, i32 }
%struct.UTextFuncs = type { i32, i32, i32, i32, ptr, ptr, ptr, ptr, ptr, ptr, ptr, ptr, ptr, ptr, ptr, ptr }

; Function Attrs: mustprogress uwtable
define noundef nonnull align 8 dereferenceable(64) ptr @_ZNK6icu_7712RegexMatcher5inputEv(ptr noundef nonnull align 8 dereferenceable(336) %0) unnamed_addr #1 align 2 personality ptr @__gxx_personality_v0 {
  %2 = alloca ptr, align 8
  %3 = alloca i32, align 4
  %4 = alloca i32, align 4
  %5 = alloca ptr, align 8
  %6 = alloca ptr, align 8
  %7 = alloca i1, align 1
  %8 = alloca ptr, align 8
  %9 = alloca i32, align 4
  %10 = alloca ptr, align 8
  store ptr %0, ptr %2, align 8, !tbaa !23
  %11 = load ptr, ptr %2, align 8
  %12 = getelementptr inbounds nuw %"class.icu_77::RegexMatcher", ptr %11, i32 0, i32 3
  %13 = load ptr, ptr %12, align 8, !tbaa !89
  %14 = icmp ne ptr %13, null
  br i1 %14, label %63, label %15

15:                                               ; preds = %1
  call void @llvm.lifetime.start.p0(i64 4, ptr %3) #11
  store i32 0, ptr %3, align 4, !tbaa !15
  call void @llvm.lifetime.start.p0(i64 4, ptr %4) #11
  %16 = getelementptr inbounds nuw %"class.icu_77::RegexMatcher", ptr %11, i32 0, i32 4
  %17 = load ptr, ptr %16, align 8, !tbaa !87
  %18 = getelementptr inbounds nuw %struct.UText, ptr %17, i32 0, i32 11
  %19 = load ptr, ptr %18, align 8, !tbaa !109
  %20 = getelementptr inbounds nuw %struct.UTextFuncs, ptr %19, i32 0, i32 11
  %21 = load ptr, ptr %20, align 8, !tbaa !110
  %22 = icmp eq ptr null, %21
  br i1 %22, label %23, label %27

23:                                               ; preds = %15
  %24 = getelementptr inbounds nuw %"class.icu_77::RegexMatcher", ptr %11, i32 0, i32 6
  %25 = load i64, ptr %24, align 8, !tbaa !90
  %26 = trunc i64 %25 to i32
  store i32 %26, ptr %4, align 4, !tbaa !14
  br label %33

27:                                               ; preds = %15
  %28 = getelementptr inbounds nuw %"class.icu_77::RegexMatcher", ptr %11, i32 0, i32 4
  %29 = load ptr, ptr %28, align 8, !tbaa !87
  %30 = getelementptr inbounds nuw %"class.icu_77::RegexMatcher", ptr %11, i32 0, i32 6
  %31 = load i64, ptr %30, align 8, !tbaa !90
  %32 = call i32 @utext_extract_77(ptr noundef %29, i64 noundef 0, i64 noundef %31, ptr noundef null, i32 noundef 0, ptr noundef %3)
  store i32 %32, ptr %4, align 4, !tbaa !14
  store i32 0, ptr %3, align 4, !tbaa !15
  br label %33

33:                                               ; preds = %27, %23
  call void @llvm.lifetime.start.p0(i64 8, ptr %5) #11
  %34 = call noundef ptr @_ZN6icu_777UMemorynwEm(i64 noundef 64) #11
  %35 = icmp eq ptr %34, null
  store i1 false, ptr %7, align 1
  br i1 %35, label %39, label %36

36:                                               ; preds = %33
  store ptr %34, ptr %6, align 8
  store i1 true, ptr %7, align 1
  %37 = load i32, ptr %4, align 4, !tbaa !14
  invoke void @_ZN6icu_7713UnicodeStringC1Eiii(ptr noundef nonnull align 8 dereferenceable(64) %34, i32 noundef %37, i32 noundef 0, i32 noundef 0)
          to label %38 unwind label %55

38:                                               ; preds = %36
  br label %39

39:                                               ; preds = %38, %33
  %40 = phi ptr [ %34, %38 ], [ null, %33 ]
  store ptr %40, ptr %5, align 8, !tbaa !100
  call void @llvm.lifetime.start.p0(i64 8, ptr %10) #11
  %41 = load ptr, ptr %5, align 8, !tbaa !100
  %42 = load i32, ptr %4, align 4, !tbaa !14
  %43 = call noundef ptr @_ZN6icu_7713UnicodeString9getBufferEi(ptr noundef nonnull align 8 dereferenceable(64) %41, i32 noundef %42)
  store ptr %43, ptr %10, align 8, !tbaa !112
  %44 = getelementptr inbounds nuw %"class.icu_77::RegexMatcher", ptr %11, i32 0, i32 4
  %45 = load ptr, ptr %44, align 8, !tbaa !87
  %46 = getelementptr inbounds nuw %"class.icu_77::RegexMatcher", ptr %11, i32 0, i32 6
  %47 = load i64, ptr %46, align 8, !tbaa !90
  %48 = load ptr, ptr %10, align 8, !tbaa !112
  %49 = load i32, ptr %4, align 4, !tbaa !14
  %50 = call i32 @utext_extract_77(ptr noundef %45, i64 noundef 0, i64 noundef %47, ptr noundef %48, i32 noundef %49, ptr noundef %3)
  %51 = load ptr, ptr %5, align 8, !tbaa !100
  %52 = load i32, ptr %4, align 4, !tbaa !14
  call void @_ZN6icu_7713UnicodeString13releaseBufferEi(ptr noundef nonnull align 8 dereferenceable(64) %51, i32 noundef %52)
  %53 = load ptr, ptr %5, align 8, !tbaa !100
  %54 = getelementptr inbounds nuw %"class.icu_77::RegexMatcher", ptr %11, i32 0, i32 3
  store ptr %53, ptr %54, align 8, !tbaa !100
  call void @llvm.lifetime.end.p0(i64 8, ptr %10) #11
  call void @llvm.lifetime.end.p0(i64 8, ptr %5) #11
  call void @llvm.lifetime.end.p0(i64 4, ptr %4) #11
  call void @llvm.lifetime.end.p0(i64 4, ptr %3) #11
  br label %63

55:                                               ; preds = %36
  %56 = landingpad { ptr, i32 }
          cleanup
  %57 = extractvalue { ptr, i32 } %56, 0
  store ptr %57, ptr %8, align 8
  %58 = extractvalue { ptr, i32 } %56, 1
  store i32 %58, ptr %9, align 4
  %59 = load i1, ptr %7, align 1
  br i1 %59, label %60, label %62

60:                                               ; preds = %55
  %61 = load ptr, ptr %6, align 8
  call void @_ZN6icu_777UMemorydlEPv(ptr noundef %61) #11
  br label %62

62:                                               ; preds = %60, %55
  call void @llvm.lifetime.end.p0(i64 8, ptr %5) #11
  call void @llvm.lifetime.end.p0(i64 4, ptr %4) #11
  call void @llvm.lifetime.end.p0(i64 4, ptr %3) #11
  br label %66

63:                                               ; preds = %39, %1
  %64 = getelementptr inbounds nuw %"class.icu_77::RegexMatcher", ptr %11, i32 0, i32 3
  %65 = load ptr, ptr %64, align 8, !tbaa !89
  ret ptr %65

66:                                               ; preds = %62
  %67 = load ptr, ptr %8, align 8
  %68 = load i32, ptr %9, align 4
  %69 = insertvalue { ptr, i32 } poison, ptr %67, 0
  %70 = insertvalue { ptr, i32 } %69, i32 %68, 1
  resume { ptr, i32 } %70
}