; Function Attrs: mustprogress uwtable
define noundef nonnull align 8 dereferenceable(64) ptr @_ZNK6icu_7712RegexMatcher5inputEv(ptr noundef nonnull align 8 captures(none) dereferenceable(336) %0) unnamed_addr #1 align 2 personality ptr @__gxx_personality_v0 {
  %2 = alloca i32, align 4
  %3 = getelementptr inbounds nuw i8, ptr %0, i64 24
  %4 = load ptr, ptr %3, align 8, !tbaa !76
  %.not = icmp eq ptr %4, null
  br i1 %.not, label %5, label %30

5:                                                ; preds = %1
  call void @llvm.lifetime.start.p0(i64 4, ptr nonnull %2) #21
  store i32 0, ptr %2, align 4, !tbaa !13
  %6 = getelementptr inbounds nuw i8, ptr %0, i64 32
  %7 = load ptr, ptr %6, align 8, !tbaa !77
  %8 = getelementptr inbounds nuw i8, ptr %7, i64 56
  %9 = load ptr, ptr %8, align 8, !tbaa !89
  %10 = getelementptr inbounds nuw i8, ptr %9, i64 72
  %11 = load ptr, ptr %10, align 8, !tbaa !90
  %12 = icmp eq ptr %11, null
  %13 = getelementptr inbounds nuw i8, ptr %0, i64 48
  %14 = load i64, ptr %13, align 8, !tbaa !66
  br i1 %12, label %15, label %17

15:                                               ; preds = %5
  %16 = trunc i64 %14 to i32
  br label %19

17:                                               ; preds = %5
  %18 = call i32 @utext_extract_77(ptr noundef nonnull %7, i64 noundef 0, i64 noundef %14, ptr noundef null, i32 noundef 0, ptr noundef nonnull %2)
  store i32 0, ptr %2, align 4, !tbaa !13
  br label %19

19:                                               ; preds = %17, %15
  %.0 = phi i32 [ %16, %15 ], [ %18, %17 ]
  %20 = call noundef ptr @_ZN6icu_777UMemorynwEm(i64 noundef 64) #21
  %21 = icmp ne ptr %20, null
  call void @llvm.assume(i1 %21)
  invoke void @_ZN6icu_7713UnicodeStringC1Eiii(ptr noundef nonnull align 8 dereferenceable(64) %20, i32 noundef %.0, i32 noundef 0, i32 noundef 0)
          to label %22 unwind label %28

22:                                               ; preds = %19
  %23 = call noundef ptr @_ZN6icu_7713UnicodeString9getBufferEi(ptr noundef nonnull align 8 dereferenceable(64) %20, i32 noundef %.0)
  %24 = load ptr, ptr %6, align 8, !tbaa !77
  %25 = getelementptr inbounds nuw i8, ptr %0, i64 48
  %26 = load i64, ptr %25, align 8, !tbaa !66
  %27 = call i32 @utext_extract_77(ptr noundef %24, i64 noundef 0, i64 noundef %26, ptr noundef %23, i32 noundef %.0, ptr noundef nonnull %2)
  call void @_ZN6icu_7713UnicodeString13releaseBufferEi(ptr noundef nonnull align 8 dereferenceable(64) %20, i32 noundef %.0)
  store ptr %20, ptr %3, align 8, !tbaa !154
  call void @llvm.lifetime.end.p0(i64 4, ptr nonnull %2) #21
  br label %30

28:                                               ; preds = %19
  %29 = landingpad { ptr, i32 }
          cleanup
  call void @_ZN6icu_777UMemorydlEPv(ptr noundef nonnull %20) #21
  call void @llvm.lifetime.end.p0(i64 4, ptr nonnull %2) #21
  resume { ptr, i32 } %29

30:                                               ; preds = %22, %1
  %31 = phi ptr [ %20, %22 ], [ %4, %1 ]
  ret ptr %31
}